target datalayout = "e-m:e-p270:32:32-p271:32:32-p272:64:64-i64:64-i128:128-f80:128-n8:16:32:64-S128"
target triple = "x86_64-pc-linux-gnu"

%"class.Eigen::Matrix.3" = type { %"class.Eigen::PlainObjectBase.4" }
%"class.Eigen::PlainObjectBase.4" = type { %"class.Eigen::DenseStorage.11" }
%"class.Eigen::DenseStorage.11" = type { %"struct.Eigen::internal::plain_array.12" }
%"struct.Eigen::internal::plain_array.12" = type { [3 x double] }

; Function Attrs: mustprogress ssp uwtable
define noundef nonnull align 8 dereferenceable(48) ptr @_ZN6open3d8geometry10Geometry3D6RotateERKN5Eigen6MatrixIdLi3ELi3ELi0ELi3ELi3EEE(ptr noundef nonnull align 8 dereferenceable(48) %0, ptr noundef nonnull align 8 dereferenceable(72) %1) unnamed_addr #1 align 2 {
  %3 = alloca ptr, align 8
  %4 = alloca ptr, align 8
  %5 = alloca %"class.Eigen::Matrix.3", align 8
  store ptr %0, ptr %3, align 8, !tbaa !4
  store ptr %1, ptr %4, align 8, !tbaa !9
  %6 = load ptr, ptr %3, align 8
  %7 = load ptr, ptr %4, align 8, !tbaa !9
  call void @llvm.lifetime.start.p0(i64 24, ptr %5) #23
  %8 = load ptr, ptr %6, align 8, !tbaa !11
  %9 = getelementptr inbounds ptr, ptr %8, i64 6
  %10 = load ptr, ptr %9, align 8
  call void %10(ptr dead_on_unwind writable sret(%"class.Eigen::Matrix.3") align 8 %5, ptr noundef nonnull align 8 dereferenceable(48) %6)
  %11 = load ptr, ptr %6, align 8, !tbaa !11
  %12 = getelementptr inbounds ptr, ptr %11, i64 13
  %13 = load ptr, ptr %12, align 8
  %14 = call noundef nonnull align 8 dereferenceable(48) ptr %13(ptr noundef nonnull align 8 dereferenceable(48) %6, ptr noundef nonnull align 8 dereferenceable(72) %7, ptr noundef nonnull align 8 dereferenceable(24) %5)
  call void @llvm.lifetime.end.p0(i64 24, ptr %5) #23
  ret ptr %14
}