; Function Attrs: mustprogress ssp uwtable
define noundef nonnull align 8 dereferenceable(48) ptr @_ZN6open3d8geometry10Geometry3D6RotateERKN5Eigen6MatrixIdLi3ELi3ELi0ELi3ELi3EEE(ptr noundef nonnull align 8 dereferenceable(48) %0, ptr noundef nonnull align 8 dereferenceable(72) %1) unnamed_addr #1 align 2 {
  %3 = alloca %"class.Eigen::Matrix.3", align 8
  call void @llvm.lifetime.start.p0(i64 24, ptr nonnull %3) #25
  %4 = load ptr, ptr %0, align 8, !tbaa !4
  %5 = getelementptr inbounds nuw i8, ptr %4, i64 48
  %6 = load ptr, ptr %5, align 8
  call void %6(ptr dead_on_unwind nonnull writable sret(%"class.Eigen::Matrix.3") align 8 %3, ptr noundef nonnull align 8 dereferenceable(48) %0)
  %7 = load ptr, ptr %0, align 8, !tbaa !4
  %8 = getelementptr inbounds nuw i8, ptr %7, i64 104
  %9 = load ptr, ptr %8, align 8
  %10 = call noundef nonnull align 8 dereferenceable(48) ptr %9(ptr noundef nonnull align 8 dereferenceable(48) %0, ptr noundef nonnull align 8 dereferenceable(72) %1, ptr noundef nonnull align 8 dereferenceable(24) %3)
  call void @llvm.lifetime.end.p0(i64 24, ptr nonnull %3) #25
  ret ptr %10
}